; Function Attrs: nounwind uwtable
define internal range(i32 -1, 1) i32 @_pending_callback(ptr noundef %0) #0 {
  %2 = tail call ptr @PyObject_CallNoArgs(ptr noundef %0) #11
  %3 = load i32, ptr %0, align 8, !tbaa !10
  %.not.i = icmp sgt i32 %3, -1
  br i1 %.not.i, label %4, label %Py_DECREF.exit

4:                                                ; preds = %1
  %5 = add nsw i32 %3, -1
  store i32 %5, ptr %0, align 8, !tbaa !10
  %6 = icmp eq i32 %5, 0
  br i1 %6, label %7, label %Py_DECREF.exit

7:                                                ; preds = %4
  tail call void @_Py_Dealloc(ptr noundef nonnull %0) #11
  br label %Py_DECREF.exit

Py_DECREF.exit:                                   ; preds = %1, %4, %7
  %.not.i5 = icmp eq ptr %2, null
  br i1 %.not.i5, label %Py_XDECREF.exit, label %8

8:                                                ; preds = %Py_DECREF.exit
  %9 = load i32, ptr %2, align 8, !tbaa !10
  %.not.i.i = icmp sgt i32 %9, -1
  br i1 %.not.i.i, label %10, label %Py_XDECREF.exit

10:                                               ; preds = %8
  %11 = add nsw i32 %9, -1
  store i32 %11, ptr %2, align 8, !tbaa !10
  %12 = icmp eq i32 %11, 0
  br i1 %12, label %13, label %Py_XDECREF.exit

13:                                               ; preds = %10
  tail call void @_Py_Dealloc(ptr noundef nonnull %2) #11
  br label %Py_XDECREF.exit

Py_XDECREF.exit:                                  ; preds = %Py_DECREF.exit, %8, %10, %13
  %14 = sext i1 %.not.i5 to i32
  ret i32 %14
}